; Function Attrs: mustprogress nounwind uwtable
define void @_ZN6icu_757MeasureD2Ev(ptr noundef nonnull align 8 dereferenceable(128) %this) unnamed_addr #4 align 2 {
entry:
  store ptr getelementptr inbounds ({ [6 x ptr] }, ptr @_ZTVN6icu_757MeasureE, i64 0, i32 0, i64 2), ptr %this, align 8
  %unit = getelementptr inbounds i8, ptr %this, i64 120
  %0 = load ptr, ptr %unit, align 8
  %isnull = icmp eq ptr %0, null
  br i1 %isnull, label %delete.end, label %delete.notnull

delete.notnull:                                   ; preds = %entry
  %vtable = load ptr, ptr %0, align 8
  %vfn = getelementptr inbounds i8, ptr %vtable, i64 8
  %1 = load ptr, ptr %vfn, align 8
  tail call void %1(ptr noundef nonnull align 8 dereferenceable(19) %0) #6
  br label %delete.end

delete.end:                                       ; preds = %delete.notnull, %entry
  %number = getelementptr inbounds i8, ptr %this, i64 8
  tail call void @_ZN6icu_7511FormattableD1Ev(ptr noundef nonnull align 8 dereferenceable(112) %number) #6
  tail call void @_ZN6icu_757UObjectD2Ev(ptr noundef nonnull align 8 dereferenceable(8) %this) #6
  ret void
}